; Function Attrs: mustprogress uwtable
define hidden noundef i32 @_ZN12fpa_rewriter6mk_remEP4exprS1_R7obj_refIS0_11ast_managerE(ptr nocapture noundef nonnull readonly align 8 dereferenceable(73) %this, ptr noundef %arg1, ptr noundef %arg2, ptr nocapture noundef nonnull align 8 dereferenceable(16) %result) local_unnamed_addr #3 align 2 personality ptr @__gxx_personality_v0 {
entry:
  %v1 = alloca %class.scoped_mpf, align 8
  %v2 = alloca %class.scoped_mpf, align 8
  %t = alloca %class.scoped_mpf, align 8
  %m_fm = getelementptr inbounds i8, ptr %this, i64 64
  %0 = load ptr, ptr %m_fm, align 8
  store ptr %0, ptr %v1, align 8
  %m_num.i.i = getelementptr inbounds i8, ptr %v1, i64 8
  call void @_ZN3mpfC1Ev(ptr noundef nonnull align 8 dereferenceable(32) %m_num.i.i)
  %1 = load ptr, ptr %m_fm, align 8
  store ptr %1, ptr %v2, align 8
  %m_num.i.i3 = getelementptr inbounds i8, ptr %v2, i64 8
  invoke void @_ZN3mpfC1Ev(ptr noundef nonnull align 8 dereferenceable(32) %m_num.i.i3)
          to label %invoke.cont unwind label %lpad

invoke.cont:                                      ; preds = %entry
  %m_plugin.i = getelementptr inbounds i8, ptr %this, i64 8
  %2 = load ptr, ptr %m_plugin.i, align 8
  %call.i4 = invoke noundef zeroext i1 @_ZN15fpa_decl_plugin10is_numeralEP4exprR3mpf(ptr noundef nonnull align 8 dereferenceable(1008) %2, ptr noundef %arg1, ptr noundef nonnull align 8 dereferenceable(32) %m_num.i.i)
          to label %invoke.cont5 unwind label %lpad3

invoke.cont5:                                     ; preds = %invoke.cont
  br i1 %call.i4, label %land.lhs.true, label %cleanup

land.lhs.true:                                    ; preds = %invoke.cont5
  %3 = load ptr, ptr %m_plugin.i, align 8
  %call.i7 = invoke noundef zeroext i1 @_ZN15fpa_decl_plugin10is_numeralEP4exprR3mpf(ptr noundef nonnull align 8 dereferenceable(1008) %3, ptr noundef %arg2, ptr noundef nonnull align 8 dereferenceable(32) %m_num.i.i3)
          to label %invoke.cont10 unwind label %lpad3

invoke.cont10:                                    ; preds = %land.lhs.true
  br i1 %call.i7, label %if.then, label %cleanup

if.then:                                          ; preds = %invoke.cont10
  %4 = load ptr, ptr %m_fm, align 8
  store ptr %4, ptr %t, align 8
  %m_num.i.i9 = getelementptr inbounds i8, ptr %t, i64 8
  invoke void @_ZN3mpfC1Ev(ptr noundef nonnull align 8 dereferenceable(32) %m_num.i.i9)
          to label %invoke.cont13 unwind label %lpad3

invoke.cont13:                                    ; preds = %if.then
  %5 = load ptr, ptr %m_fm, align 8
  invoke void @_ZN11mpf_manager3remERK3mpfS2_RS0_(ptr noundef nonnull align 8 dereferenceable(840) %5, ptr noundef nonnull align 8 dereferenceable(32) %m_num.i.i, ptr noundef nonnull align 8 dereferenceable(32) %m_num.i.i3, ptr noundef nonnull align 8 dereferenceable(32) %m_num.i.i9)
          to label %invoke.cont22 unwind label %lpad15

invoke.cont22:                                    ; preds = %invoke.cont13
  %6 = load ptr, ptr %m_plugin.i, align 8
  %call.i16 = invoke noundef ptr @_ZN15fpa_decl_plugin10mk_numeralERK3mpf(ptr noundef nonnull align 8 dereferenceable(1008) %6, ptr noundef nonnull align 8 dereferenceable(32) %m_num.i.i9)
          to label %invoke.cont26 unwind label %lpad15

invoke.cont26:                                    ; preds = %invoke.cont22
  %tobool.not.i = icmp eq ptr %call.i16, null
  br i1 %tobool.not.i, label %if.end.i, label %_ZN11ast_manager7inc_refEP3ast.exit.i

_ZN11ast_manager7inc_refEP3ast.exit.i:            ; preds = %invoke.cont26
  %m_ref_count.i.i.i = getelementptr inbounds i8, ptr %call.i16, i64 8
  %7 = load i32, ptr %m_ref_count.i.i.i, align 4
  %inc.i.i.i = add i32 %7, 1
  store i32 %inc.i.i.i, ptr %m_ref_count.i.i.i, align 4
  br label %if.end.i

if.end.i:                                         ; preds = %_ZN11ast_manager7inc_refEP3ast.exit.i, %invoke.cont26
  %8 = load ptr, ptr %result, align 8
  %tobool.not.i3.i = icmp eq ptr %8, null
  br i1 %tobool.not.i3.i, label %invoke.cont28, label %if.then.i.i.i

if.then.i.i.i:                                    ; preds = %if.end.i
  %m_manager.i.i = getelementptr inbounds i8, ptr %result, i64 8
  %9 = load ptr, ptr %m_manager.i.i, align 8
  %m_ref_count.i.i.i.i = getelementptr inbounds i8, ptr %8, i64 8
  %10 = load i32, ptr %m_ref_count.i.i.i.i, align 4
  %dec.i.i.i.i = add i32 %10, -1
  store i32 %dec.i.i.i.i, ptr %m_ref_count.i.i.i.i, align 4
  %cmp.i.i.i = icmp eq i32 %dec.i.i.i.i, 0
  br i1 %cmp.i.i.i, label %if.then2.i.i.i, label %invoke.cont28

if.then2.i.i.i:                                   ; preds = %if.then.i.i.i
  invoke void @_ZN11ast_manager11delete_nodeEP3ast(ptr noundef nonnull align 8 dereferenceable(976) %9, ptr noundef nonnull %8)
          to label %invoke.cont28 unwind label %lpad15

invoke.cont28:                                    ; preds = %if.then.i.i.i, %if.end.i, %if.then2.i.i.i
  store ptr %call.i16, ptr %result, align 8
  %11 = load ptr, ptr %t, align 8
  %m_mpz_manager.i.i.i = getelementptr inbounds i8, ptr %11, i64 728
  %12 = load ptr, ptr %m_mpz_manager.i.i.i, align 8
  %significand.i.i.i = getelementptr inbounds i8, ptr %t, i64 16
  invoke void @_ZN11mpz_managerILb0EE3delEPS0_R3mpz(ptr noundef nonnull %12, ptr noundef nonnull align 8 dereferenceable(16) %significand.i.i.i)
          to label %cleanup unwind label %terminate.lpad.i.i

terminate.lpad.i.i:                               ; preds = %invoke.cont28
  %13 = landingpad { ptr, i32 }
          catch ptr null
  %14 = extractvalue { ptr, i32 } %13, 0
  call void @__clang_call_terminate(ptr %14) #14
  unreachable

lpad:                                             ; preds = %entry
  %15 = landingpad { ptr, i32 }
          cleanup
  br label %ehcleanup31

lpad3:                                            ; preds = %if.then, %land.lhs.true, %invoke.cont
  %16 = landingpad { ptr, i32 }
          cleanup
  br label %ehcleanup

lpad15:                                           ; preds = %if.then2.i.i.i, %invoke.cont22, %invoke.cont13
  %17 = landingpad { ptr, i32 }
          cleanup
  call void @_ZN10scoped_mpfD2Ev(ptr noundef nonnull align 8 dereferenceable(40) %t) #13
  br label %ehcleanup

cleanup:                                          ; preds = %invoke.cont28, %invoke.cont5, %invoke.cont10
  %retval.0 = phi i32 [ 5, %invoke.cont10 ], [ 5, %invoke.cont5 ], [ 4, %invoke.cont28 ]
  %18 = load ptr, ptr %v2, align 8
  %m_mpz_manager.i.i.i17 = getelementptr inbounds i8, ptr %18, i64 728
  %19 = load ptr, ptr %m_mpz_manager.i.i.i17, align 8
  %significand.i.i.i18 = getelementptr inbounds i8, ptr %v2, i64 16
  invoke void @_ZN11mpz_managerILb0EE3delEPS0_R3mpz(ptr noundef nonnull %19, ptr noundef nonnull align 8 dereferenceable(16) %significand.i.i.i18)
          to label %_ZN10scoped_mpfD2Ev.exit20 unwind label %terminate.lpad.i.i19

terminate.lpad.i.i19:                             ; preds = %cleanup
  %20 = landingpad { ptr, i32 }
          catch ptr null
  %21 = extractvalue { ptr, i32 } %20, 0
  call void @__clang_call_terminate(ptr %21) #14
  unreachable

_ZN10scoped_mpfD2Ev.exit20:                       ; preds = %cleanup
  %22 = load ptr, ptr %v1, align 8
  %m_mpz_manager.i.i.i21 = getelementptr inbounds i8, ptr %22, i64 728
  %23 = load ptr, ptr %m_mpz_manager.i.i.i21, align 8
  %significand.i.i.i22 = getelementptr inbounds i8, ptr %v1, i64 16
  invoke void @_ZN11mpz_managerILb0EE3delEPS0_R3mpz(ptr noundef nonnull %23, ptr noundef nonnull align 8 dereferenceable(16) %significand.i.i.i22)
          to label %_ZN10scoped_mpfD2Ev.exit24 unwind label %terminate.lpad.i.i23

terminate.lpad.i.i23:                             ; preds = %_ZN10scoped_mpfD2Ev.exit20
  %24 = landingpad { ptr, i32 }
          catch ptr null
  %25 = extractvalue { ptr, i32 } %24, 0
  call void @__clang_call_terminate(ptr %25) #14
  unreachable

_ZN10scoped_mpfD2Ev.exit24:                       ; preds = %_ZN10scoped_mpfD2Ev.exit20
  ret i32 %retval.0

ehcleanup:                                        ; preds = %lpad15, %lpad3
  %.pn = phi { ptr, i32 } [ %17, %lpad15 ], [ %16, %lpad3 ]
  call void @_ZN10scoped_mpfD2Ev(ptr noundef nonnull align 8 dereferenceable(40) %v2) #13
  br label %ehcleanup31

ehcleanup31:                                      ; preds = %ehcleanup, %lpad
  %.pn.pn = phi { ptr, i32 } [ %.pn, %ehcleanup ], [ %15, %lpad ]
  call void @_ZN10scoped_mpfD2Ev(ptr noundef nonnull align 8 dereferenceable(40) %v1) #13
  resume { ptr, i32 } %.pn.pn
}